; Function Attrs: mustprogress uwtable
define internal noundef nonnull ptr @_ZN7testing8internal24ParameterizedTestFactoryIN4absl12log_internal12_GLOBAL__N_133StructuredProtoTest_Encoding_TestEE10CreateTestEv(ptr noundef nonnull align 8 dereferenceable(96) %0) unnamed_addr #3 align 2 personality ptr @__gxx_personality_v0 {
  %2 = getelementptr inbounds nuw i8, ptr %0, i64 8
  store ptr %2, ptr @_ZN7testing18WithParamInterfaceIN4absl12log_internal12_GLOBAL__N_123StructuredProtoTestCaseEE10parameter_E, align 8, !tbaa !79
  %3 = tail call noalias noundef nonnull dereferenceable(24) ptr @_Znwm(i64 noundef 24) #31
  invoke void @_ZN7testing4TestC2Ev(ptr noundef nonnull align 8 dereferenceable(24) %3)
          to label %4 unwind label %6

4:                                                ; preds = %1
  %5 = getelementptr inbounds nuw i8, ptr %3, i64 16
  store ptr getelementptr inbounds nuw inrange(-16, 48) (i8, ptr @_ZTVN4absl12log_internal12_GLOBAL__N_133StructuredProtoTest_Encoding_TestE, i64 16), ptr %3, align 8, !tbaa !18
  store ptr getelementptr inbounds nuw inrange(-16, 16) (i8, ptr @_ZTVN4absl12log_internal12_GLOBAL__N_133StructuredProtoTest_Encoding_TestE, i64 80), ptr %5, align 8, !tbaa !18
  ret ptr %3

6:                                                ; preds = %1
  %7 = landingpad { ptr, i32 }
          cleanup
  tail call void @_ZdlPvm(ptr noundef nonnull %3, i64 noundef 24) #32
  resume { ptr, i32 } %7
}